
Pratica06-AD.elf:     file format elf32-littlearm

Sections:
Idx Name          Size      VMA       LMA       File off  Algn
  0 .isr_vector   00000130  08000000  08000000  00001000  2**0
                  CONTENTS, ALLOC, LOAD, READONLY, DATA
  1 .text         000002e8  08000130  08000130  00001130  2**2
                  CONTENTS, ALLOC, LOAD, READONLY, CODE
  2 .rodata       00000000  08000418  08000420  00001420  2**0
                  CONTENTS, ALLOC, LOAD, DATA
  3 .ARM.extab    00000000  08000418  08000418  00001420  2**0
                  CONTENTS, READONLY
  4 .ARM          00000000  08000418  08000418  00001420  2**0
                  CONTENTS, READONLY
  5 .preinit_array 00000000  08000418  08000420  00001420  2**0
                  CONTENTS, ALLOC, LOAD, DATA
  6 .init_array   00000004  08000418  08000418  00001418  2**2
                  CONTENTS, ALLOC, LOAD, READONLY, DATA
  7 .fini_array   00000004  0800041c  0800041c  0000141c  2**2
                  CONTENTS, ALLOC, LOAD, READONLY, DATA
  8 .data         00000000  20000000  20000000  00001420  2**0
                  CONTENTS, ALLOC, LOAD, DATA
  9 .bss          00000024  20000000  08000420  00002000  2**2
                  ALLOC
 10 ._user_heap_stack 00000604  20000024  08000420  00002024  2**0
                  ALLOC
 11 .ARM.attributes 00000029  00000000  00000000  00001420  2**0
                  CONTENTS, READONLY
 12 .debug_info   00000491  00000000  00000000  00001449  2**0
                  CONTENTS, READONLY, DEBUGGING, OCTETS
 13 .debug_abbrev 0000013d  00000000  00000000  000018da  2**0
                  CONTENTS, READONLY, DEBUGGING, OCTETS
 14 .debug_aranges 00000068  00000000  00000000  00001a18  2**3
                  CONTENTS, READONLY, DEBUGGING, OCTETS
 15 .debug_rnglists 00000045  00000000  00000000  00001a80  2**0
                  CONTENTS, READONLY, DEBUGGING, OCTETS
 16 .debug_macro  0000ff54  00000000  00000000  00001ac5  2**0
                  CONTENTS, READONLY, DEBUGGING, OCTETS
 17 .debug_line   0000061b  00000000  00000000  00011a19  2**0
                  CONTENTS, READONLY, DEBUGGING, OCTETS
 18 .debug_str    00054606  00000000  00000000  00012034  2**0
                  CONTENTS, READONLY, DEBUGGING, OCTETS
 19 .comment      00000043  00000000  00000000  0006663a  2**0
                  CONTENTS, READONLY
 20 .debug_frame  000000c8  00000000  00000000  00066680  2**2
                  CONTENTS, READONLY, DEBUGGING, OCTETS
 21 .debug_line_str 00000061  00000000  00000000  00066748  2**0
                  CONTENTS, READONLY, DEBUGGING, OCTETS

Disassembly of section .text:

08000130 <__do_global_dtors_aux>:
 8000130:	b510      	push	{r4, lr}
 8000132:	4c05      	ldr	r4, [pc, #20]	@ (8000148 <__do_global_dtors_aux+0x18>)
 8000134:	7823      	ldrb	r3, [r4, #0]
 8000136:	b933      	cbnz	r3, 8000146 <__do_global_dtors_aux+0x16>
 8000138:	4b04      	ldr	r3, [pc, #16]	@ (800014c <__do_global_dtors_aux+0x1c>)
 800013a:	b113      	cbz	r3, 8000142 <__do_global_dtors_aux+0x12>
 800013c:	4804      	ldr	r0, [pc, #16]	@ (8000150 <__do_global_dtors_aux+0x20>)
 800013e:	f3af 8000 	nop.w
 8000142:	2301      	movs	r3, #1
 8000144:	7023      	strb	r3, [r4, #0]
 8000146:	bd10      	pop	{r4, pc}
 8000148:	20000000 	.word	0x20000000
 800014c:	00000000 	.word	0x00000000
 8000150:	08000400 	.word	0x08000400

08000154 <frame_dummy>:
 8000154:	b508      	push	{r3, lr}
 8000156:	4b03      	ldr	r3, [pc, #12]	@ (8000164 <frame_dummy+0x10>)
 8000158:	b11b      	cbz	r3, 8000162 <frame_dummy+0xe>
 800015a:	4903      	ldr	r1, [pc, #12]	@ (8000168 <frame_dummy+0x14>)
 800015c:	4803      	ldr	r0, [pc, #12]	@ (800016c <frame_dummy+0x18>)
 800015e:	f3af 8000 	nop.w
 8000162:	bd08      	pop	{r3, pc}
 8000164:	00000000 	.word	0x00000000
 8000168:	20000004 	.word	0x20000004
 800016c:	08000400 	.word	0x08000400

08000170 <main>:
void GPIO_Init(void);
void DMA_Init(void);
void ADC_Init(void);
void TIM3_PWM_Init(void);

int main(void) {
 8000170:	b580      	push	{r7, lr}
 8000172:	af00      	add	r7, sp, #0
    // Inicializa todos os periféricos necessários
    GPIO_Init();
 8000174:	f000 f830 	bl	80001d8 <GPIO_Init>
    DMA_Init();
 8000178:	f000 f860 	bl	800023c <DMA_Init>
    ADC_Init();
 800017c:	f000 f886 	bl	800028c <ADC_Init>
    TIM3_PWM_Init();
 8000180:	f000 f8ae 	bl	80002e0 <TIM3_PWM_Init>

    // Dá o Start inicial no ADC para rodar continuamente
    ADC1->CR2 |= ADC_CR2_ADON;          // Garante que o ADC está ligado
 8000184:	4b11      	ldr	r3, [pc, #68]	@ (80001cc <main+0x5c>)
 8000186:	689b      	ldr	r3, [r3, #8]
 8000188:	4a10      	ldr	r2, [pc, #64]	@ (80001cc <main+0x5c>)
 800018a:	f043 0301 	orr.w	r3, r3, #1
 800018e:	6093      	str	r3, [r2, #8]
    ADC1->CR2 |= ADC_CR2_CONT;          // Habilita conversão contínua
 8000190:	4b0e      	ldr	r3, [pc, #56]	@ (80001cc <main+0x5c>)
 8000192:	689b      	ldr	r3, [r3, #8]
 8000194:	4a0d      	ldr	r2, [pc, #52]	@ (80001cc <main+0x5c>)
 8000196:	f043 0302 	orr.w	r3, r3, #2
 800019a:	6093      	str	r3, [r2, #8]
    ADC1->CR2 |= ADC_CR2_SWSTART;       // Dispara a primeira conversão
 800019c:	4b0b      	ldr	r3, [pc, #44]	@ (80001cc <main+0x5c>)
 800019e:	689b      	ldr	r3, [r3, #8]
 80001a0:	4a0a      	ldr	r2, [pc, #40]	@ (80001cc <main+0x5c>)
 80001a2:	f443 0380 	orr.w	r3, r3, #4194304	@ 0x400000
 80001a6:	6093      	str	r3, [r2, #8]

    while(1) {
        // A CPU não faz NENHUM esforço de leitura! O DMA faz tudo em background.
        // Nós apenas atualizamos o brilho dos LEDs com os valores atualizados na RAM.

        TIM3->CCR1 = adc_buffer[0]; // Atualiza Canal Vermelho (PA6)
 80001a8:	4b09      	ldr	r3, [pc, #36]	@ (80001d0 <main+0x60>)
 80001aa:	881b      	ldrh	r3, [r3, #0]
 80001ac:	b29a      	uxth	r2, r3
 80001ae:	4b09      	ldr	r3, [pc, #36]	@ (80001d4 <main+0x64>)
 80001b0:	635a      	str	r2, [r3, #52]	@ 0x34
        TIM3->CCR2 = adc_buffer[1]; // Atualiza Canal Verde (PA7)
 80001b2:	4b07      	ldr	r3, [pc, #28]	@ (80001d0 <main+0x60>)
 80001b4:	885b      	ldrh	r3, [r3, #2]
 80001b6:	b29a      	uxth	r2, r3
 80001b8:	4b06      	ldr	r3, [pc, #24]	@ (80001d4 <main+0x64>)
 80001ba:	639a      	str	r2, [r3, #56]	@ 0x38
        TIM3->CCR3 = adc_buffer[2]; // Atualiza Canal Azul (PB0)
 80001bc:	4b04      	ldr	r3, [pc, #16]	@ (80001d0 <main+0x60>)
 80001be:	889b      	ldrh	r3, [r3, #4]
 80001c0:	b29a      	uxth	r2, r3
 80001c2:	4b04      	ldr	r3, [pc, #16]	@ (80001d4 <main+0x64>)
 80001c4:	63da      	str	r2, [r3, #60]	@ 0x3c
        TIM3->CCR1 = adc_buffer[0]; // Atualiza Canal Vermelho (PA6)
 80001c6:	bf00      	nop
 80001c8:	e7ee      	b.n	80001a8 <main+0x38>
 80001ca:	bf00      	nop
 80001cc:	40012400 	.word	0x40012400
 80001d0:	2000001c 	.word	0x2000001c
 80001d4:	40000400 	.word	0x40000400

080001d8 <GPIO_Init>:
    }
}

void GPIO_Init(void) {
 80001d8:	b480      	push	{r7}
 80001da:	af00      	add	r7, sp, #0
    // Liga o clock das Portas A e B, e do periférico AFIO (Funções Alternativas)
    RCC->APB2ENR |= RCC_APB2ENR_IOPAEN | RCC_APB2ENR_IOPBEN | RCC_APB2ENR_AFIOEN;
 80001dc:	4b14      	ldr	r3, [pc, #80]	@ (8000230 <GPIO_Init+0x58>)
 80001de:	699b      	ldr	r3, [r3, #24]
 80001e0:	4a13      	ldr	r2, [pc, #76]	@ (8000230 <GPIO_Init+0x58>)
 80001e2:	f043 030d 	orr.w	r3, r3, #13
 80001e6:	6193      	str	r3, [r2, #24]

    // 1. Configura PA0, PA1 e PA2 como Entrada Analógica (Modo: 0000 -> 0x0)
    GPIOA->CRL &= ~0x00000FFF;
 80001e8:	4b12      	ldr	r3, [pc, #72]	@ (8000234 <GPIO_Init+0x5c>)
 80001ea:	681b      	ldr	r3, [r3, #0]
 80001ec:	4a11      	ldr	r2, [pc, #68]	@ (8000234 <GPIO_Init+0x5c>)
 80001ee:	f423 637f 	bic.w	r3, r3, #4080	@ 0xff0
 80001f2:	f023 030f 	bic.w	r3, r3, #15
 80001f6:	6013      	str	r3, [r2, #0]

    // 2. Configura PA6 e PA7 como Saída de Função Alternativa Push-Pull (TIM3_CH1 e CH2 -> Modo: 1011 -> 0xB)
    GPIOA->CRL &= ~0xFF000000;
 80001f8:	4b0e      	ldr	r3, [pc, #56]	@ (8000234 <GPIO_Init+0x5c>)
 80001fa:	681b      	ldr	r3, [r3, #0]
 80001fc:	4a0d      	ldr	r2, [pc, #52]	@ (8000234 <GPIO_Init+0x5c>)
 80001fe:	f023 437f 	bic.w	r3, r3, #4278190080	@ 0xff000000
 8000202:	6013      	str	r3, [r2, #0]
    GPIOA->CRL |=  0xBB000000;
 8000204:	4b0b      	ldr	r3, [pc, #44]	@ (8000234 <GPIO_Init+0x5c>)
 8000206:	681b      	ldr	r3, [r3, #0]
 8000208:	4a0a      	ldr	r2, [pc, #40]	@ (8000234 <GPIO_Init+0x5c>)
 800020a:	f043 433b 	orr.w	r3, r3, #3137339392	@ 0xbb000000
 800020e:	6013      	str	r3, [r2, #0]

    // 3. Configura PB0 como Saída de Função Alternativa Push-Pull (TIM3_CH3 -> Modo: 1011 -> 0xB)
    GPIOB->CRL &= ~0x0000000F;
 8000210:	4b09      	ldr	r3, [pc, #36]	@ (8000238 <GPIO_Init+0x60>)
 8000212:	681b      	ldr	r3, [r3, #0]
 8000214:	4a08      	ldr	r2, [pc, #32]	@ (8000238 <GPIO_Init+0x60>)
 8000216:	f023 030f 	bic.w	r3, r3, #15
 800021a:	6013      	str	r3, [r2, #0]
    GPIOB->CRL |=  0x0000000B;
 800021c:	4b06      	ldr	r3, [pc, #24]	@ (8000238 <GPIO_Init+0x60>)
 800021e:	681b      	ldr	r3, [r3, #0]
 8000220:	4a05      	ldr	r2, [pc, #20]	@ (8000238 <GPIO_Init+0x60>)
 8000222:	f043 030b 	orr.w	r3, r3, #11
 8000226:	6013      	str	r3, [r2, #0]
}
 8000228:	bf00      	nop
 800022a:	46bd      	mov	sp, r7
 800022c:	bc80      	pop	{r7}
 800022e:	4770      	bx	lr
 8000230:	40021000 	.word	0x40021000
 8000234:	40010800 	.word	0x40010800
 8000238:	40010c00 	.word	0x40010c00

0800023c <DMA_Init>:

void DMA_Init(void) {
 800023c:	b480      	push	{r7}
 800023e:	af00      	add	r7, sp, #0
    // Liga o clock do controlador DMA1
    RCC->AHBENR |= RCC_AHBENR_DMA1EN;
 8000240:	4b0e      	ldr	r3, [pc, #56]	@ (800027c <DMA_Init+0x40>)
 8000242:	695b      	ldr	r3, [r3, #20]
 8000244:	4a0d      	ldr	r2, [pc, #52]	@ (800027c <DMA_Init+0x40>)
 8000246:	f043 0301 	orr.w	r3, r3, #1
 800024a:	6153      	str	r3, [r2, #20]

    // O ADC1 está mapeado obrigatoriamente no Canal 1 do DMA1
    DMA1_Channel1->CPAR = (uint32_t)&(ADC1->DR);       // Endereço de Origem: Registrador de dados do ADC
 800024c:	4b0c      	ldr	r3, [pc, #48]	@ (8000280 <DMA_Init+0x44>)
 800024e:	4a0d      	ldr	r2, [pc, #52]	@ (8000284 <DMA_Init+0x48>)
 8000250:	609a      	str	r2, [r3, #8]
    DMA1_Channel1->CMAR = (uint32_t)adc_buffer;        // Endereço de Destino: Nosso vetor na RAM
 8000252:	4b0b      	ldr	r3, [pc, #44]	@ (8000280 <DMA_Init+0x44>)
 8000254:	4a0c      	ldr	r2, [pc, #48]	@ (8000288 <DMA_Init+0x4c>)
 8000256:	60da      	str	r2, [r3, #12]
    DMA1_Channel1->CNDTR = 3;                          // Quantidade de transferências por ciclo (3 canais)
 8000258:	4b09      	ldr	r3, [pc, #36]	@ (8000280 <DMA_Init+0x44>)
 800025a:	2203      	movs	r2, #3
 800025c:	605a      	str	r2, [r3, #4]

    // Configuração do registrador de controle do DMA:
    // MSIZE = 16-bits (01) | PSIZE = 16-bits (01) | MINC = Incrementa memória (1)
    // PINC = Não incrementa o periférico (0) | CIRC = Modo Circular (1) | DIR = Periférico para Memória (0)
    DMA1_Channel1->CCR = (1 << 10) | (1 << 8) | (1 << 7) | (1 << 5);
 800025e:	4b08      	ldr	r3, [pc, #32]	@ (8000280 <DMA_Init+0x44>)
 8000260:	f44f 62b4 	mov.w	r2, #1440	@ 0x5a0
 8000264:	601a      	str	r2, [r3, #0]

    // Ativa o canal do DMA
    DMA1_Channel1->CCR |= DMA_CCR_EN;
 8000266:	4b06      	ldr	r3, [pc, #24]	@ (8000280 <DMA_Init+0x44>)
 8000268:	681b      	ldr	r3, [r3, #0]
 800026a:	4a05      	ldr	r2, [pc, #20]	@ (8000280 <DMA_Init+0x44>)
 800026c:	f043 0301 	orr.w	r3, r3, #1
 8000270:	6013      	str	r3, [r2, #0]
}
 8000272:	bf00      	nop
 8000274:	46bd      	mov	sp, r7
 8000276:	bc80      	pop	{r7}
 8000278:	4770      	bx	lr
 800027a:	bf00      	nop
 800027c:	40021000 	.word	0x40021000
 8000280:	40020008 	.word	0x40020008
 8000284:	4001244c 	.word	0x4001244c
 8000288:	2000001c 	.word	0x2000001c

0800028c <ADC_Init>:

void ADC_Init(void) {
 800028c:	b480      	push	{r7}
 800028e:	af00      	add	r7, sp, #0
    // Liga o clock do ADC1
    RCC->APB2ENR |= RCC_APB2ENR_ADC1EN;
 8000290:	4b11      	ldr	r3, [pc, #68]	@ (80002d8 <ADC_Init+0x4c>)
 8000292:	699b      	ldr	r3, [r3, #24]
 8000294:	4a10      	ldr	r2, [pc, #64]	@ (80002d8 <ADC_Init+0x4c>)
 8000296:	f443 7300 	orr.w	r3, r3, #512	@ 0x200
 800029a:	6193      	str	r3, [r2, #24]

    // Configura a sequência de varredura (SCAN): leremos 3 canais
    ADC1->SQR1 = (2 << 20); // 2 significa "3 conversões" (comprimento = L + 1)
 800029c:	4b0f      	ldr	r3, [pc, #60]	@ (80002dc <ADC_Init+0x50>)
 800029e:	f44f 1200 	mov.w	r2, #2097152	@ 0x200000
 80002a2:	62da      	str	r2, [r3, #44]	@ 0x2c

    // Define a ordem: 1º define o canal 0, 2º canal 1, 3º canal 2
    ADC1->SQR3 = (0 << 0) | (1 << 5) | (2 << 10);
 80002a4:	4b0d      	ldr	r3, [pc, #52]	@ (80002dc <ADC_Init+0x50>)
 80002a6:	f44f 6202 	mov.w	r2, #2080	@ 0x820
 80002aa:	635a      	str	r2, [r3, #52]	@ 0x34

    // Configurações de Controle do ADC
    ADC1->CR1 |= ADC_CR1_SCAN;   // Habilita Modo SCAN (Varredura de múltiplos canais)
 80002ac:	4b0b      	ldr	r3, [pc, #44]	@ (80002dc <ADC_Init+0x50>)
 80002ae:	685b      	ldr	r3, [r3, #4]
 80002b0:	4a0a      	ldr	r2, [pc, #40]	@ (80002dc <ADC_Init+0x50>)
 80002b2:	f443 7380 	orr.w	r3, r3, #256	@ 0x100
 80002b6:	6053      	str	r3, [r2, #4]
    ADC1->CR2 |= ADC_CR2_DMA;    // Habilita requisições de DMA pelo ADC
 80002b8:	4b08      	ldr	r3, [pc, #32]	@ (80002dc <ADC_Init+0x50>)
 80002ba:	689b      	ldr	r3, [r3, #8]
 80002bc:	4a07      	ldr	r2, [pc, #28]	@ (80002dc <ADC_Init+0x50>)
 80002be:	f443 7380 	orr.w	r3, r3, #256	@ 0x100
 80002c2:	6093      	str	r3, [r2, #8]

    // Liga o ADC por hardware (precisa ligar uma vez para dar o wake-up)
    ADC1->CR2 |= ADC_CR2_ADON;
 80002c4:	4b05      	ldr	r3, [pc, #20]	@ (80002dc <ADC_Init+0x50>)
 80002c6:	689b      	ldr	r3, [r3, #8]
 80002c8:	4a04      	ldr	r2, [pc, #16]	@ (80002dc <ADC_Init+0x50>)
 80002ca:	f043 0301 	orr.w	r3, r3, #1
 80002ce:	6093      	str	r3, [r2, #8]
}
 80002d0:	bf00      	nop
 80002d2:	46bd      	mov	sp, r7
 80002d4:	bc80      	pop	{r7}
 80002d6:	4770      	bx	lr
 80002d8:	40021000 	.word	0x40021000
 80002dc:	40012400 	.word	0x40012400

080002e0 <TIM3_PWM_Init>:

void TIM3_PWM_Init(void) {
 80002e0:	b480      	push	{r7}
 80002e2:	af00      	add	r7, sp, #0
    // Liga o clock do Timer 3
    RCC->APB1ENR |= RCC_APB1ENR_TIM3EN;
 80002e4:	4b1d      	ldr	r3, [pc, #116]	@ (800035c <TIM3_PWM_Init+0x7c>)
 80002e6:	69db      	ldr	r3, [r3, #28]
 80002e8:	4a1c      	ldr	r2, [pc, #112]	@ (800035c <TIM3_PWM_Init+0x7c>)
 80002ea:	f043 0302 	orr.w	r3, r3, #2
 80002ee:	61d3      	str	r3, [r2, #28]

    // Configura o período do PWM para casar com a resolução de 12 bits do ADC (0 a 4095)
    TIM3->ARR = 4095;
 80002f0:	4b1b      	ldr	r3, [pc, #108]	@ (8000360 <TIM3_PWM_Init+0x80>)
 80002f2:	f640 72ff 	movw	r2, #4095	@ 0xfff
 80002f6:	62da      	str	r2, [r3, #44]	@ 0x2c
    TIM3->PSC = 0;    // Sem divisão de clock para o PWM rodar em alta frequência e não piscar visualmente
 80002f8:	4b19      	ldr	r3, [pc, #100]	@ (8000360 <TIM3_PWM_Init+0x80>)
 80002fa:	2200      	movs	r2, #0
 80002fc:	629a      	str	r2, [r3, #40]	@ 0x28

    // Configura Canal 1 e Canal 2 para modo PWM 1 (Bits 110 nas posições corretas)
    TIM3->CCMR1 |= (6 << 4) | (6 << 12);
 80002fe:	4b18      	ldr	r3, [pc, #96]	@ (8000360 <TIM3_PWM_Init+0x80>)
 8000300:	699b      	ldr	r3, [r3, #24]
 8000302:	4a17      	ldr	r2, [pc, #92]	@ (8000360 <TIM3_PWM_Init+0x80>)
 8000304:	f443 43c0 	orr.w	r3, r3, #24576	@ 0x6000
 8000308:	f043 0360 	orr.w	r3, r3, #96	@ 0x60
 800030c:	6193      	str	r3, [r2, #24]
    TIM3->CCMR1 |= TIM_CCMR1_OC1PE | TIM_CCMR1_OC2PE; // Habilita Preload
 800030e:	4b14      	ldr	r3, [pc, #80]	@ (8000360 <TIM3_PWM_Init+0x80>)
 8000310:	699b      	ldr	r3, [r3, #24]
 8000312:	4a13      	ldr	r2, [pc, #76]	@ (8000360 <TIM3_PWM_Init+0x80>)
 8000314:	f443 6300 	orr.w	r3, r3, #2048	@ 0x800
 8000318:	f043 0308 	orr.w	r3, r3, #8
 800031c:	6193      	str	r3, [r2, #24]

    // Configura Canal 3 para modo PWM 1
    TIM3->CCMR2 |= (6 << 4);
 800031e:	4b10      	ldr	r3, [pc, #64]	@ (8000360 <TIM3_PWM_Init+0x80>)
 8000320:	69db      	ldr	r3, [r3, #28]
 8000322:	4a0f      	ldr	r2, [pc, #60]	@ (8000360 <TIM3_PWM_Init+0x80>)
 8000324:	f043 0360 	orr.w	r3, r3, #96	@ 0x60
 8000328:	61d3      	str	r3, [r2, #28]
    TIM3->CCMR2 |= TIM_CCMR2_OC3PE;
 800032a:	4b0d      	ldr	r3, [pc, #52]	@ (8000360 <TIM3_PWM_Init+0x80>)
 800032c:	69db      	ldr	r3, [r3, #28]
 800032e:	4a0c      	ldr	r2, [pc, #48]	@ (8000360 <TIM3_PWM_Init+0x80>)
 8000330:	f043 0308 	orr.w	r3, r3, #8
 8000334:	61d3      	str	r3, [r2, #28]

    // Habilita as saídas dos canais 1, 2 e 3 no pino físico
    TIM3->CCER |= TIM_CCER_CC1E | TIM_CCER_CC2E | TIM_CCER_CC3E;
 8000336:	4b0a      	ldr	r3, [pc, #40]	@ (8000360 <TIM3_PWM_Init+0x80>)
 8000338:	6a1b      	ldr	r3, [r3, #32]
 800033a:	4a09      	ldr	r2, [pc, #36]	@ (8000360 <TIM3_PWM_Init+0x80>)
 800033c:	f443 7388 	orr.w	r3, r3, #272	@ 0x110
 8000340:	f043 0301 	orr.w	r3, r3, #1
 8000344:	6213      	str	r3, [r2, #32]

    // Liga o Timer 3
    TIM3->CR1 |= TIM_CR1_CEN;
 8000346:	4b06      	ldr	r3, [pc, #24]	@ (8000360 <TIM3_PWM_Init+0x80>)
 8000348:	681b      	ldr	r3, [r3, #0]
 800034a:	4a05      	ldr	r2, [pc, #20]	@ (8000360 <TIM3_PWM_Init+0x80>)
 800034c:	f043 0301 	orr.w	r3, r3, #1
 8000350:	6013      	str	r3, [r2, #0]
}
 8000352:	bf00      	nop
 8000354:	46bd      	mov	sp, r7
 8000356:	bc80      	pop	{r7}
 8000358:	4770      	bx	lr
 800035a:	bf00      	nop
 800035c:	40021000 	.word	0x40021000
 8000360:	40000400 	.word	0x40000400

08000364 <Reset_Handler>:

  .section .text.Reset_Handler
  .weak Reset_Handler
  .type Reset_Handler, %function
Reset_Handler:
  ldr   r0, =_estack
 8000364:	480d      	ldr	r0, [pc, #52]	@ (800039c <LoopForever+0x2>)
  mov   sp, r0          /* set stack pointer */
 8000366:	4685      	mov	sp, r0
/* Call the clock system initialization function.*/
  bl  SystemInit
 8000368:	f3af 8000 	nop.w

/* Copy the data segment initializers from flash to SRAM */
  ldr r0, =_sdata
 800036c:	480c      	ldr	r0, [pc, #48]	@ (80003a0 <LoopForever+0x6>)
  ldr r1, =_edata
 800036e:	490d      	ldr	r1, [pc, #52]	@ (80003a4 <LoopForever+0xa>)
  ldr r2, =_sidata
 8000370:	4a0d      	ldr	r2, [pc, #52]	@ (80003a8 <LoopForever+0xe>)
  movs r3, #0
 8000372:	2300      	movs	r3, #0
  b LoopCopyDataInit
 8000374:	e002      	b.n	800037c <LoopCopyDataInit>

08000376 <CopyDataInit>:

CopyDataInit:
  ldr r4, [r2, r3]
 8000376:	58d4      	ldr	r4, [r2, r3]
  str r4, [r0, r3]
 8000378:	50c4      	str	r4, [r0, r3]
  adds r3, r3, #4
 800037a:	3304      	adds	r3, #4

0800037c <LoopCopyDataInit>:

LoopCopyDataInit:
  adds r4, r0, r3
 800037c:	18c4      	adds	r4, r0, r3
  cmp r4, r1
 800037e:	428c      	cmp	r4, r1
  bcc CopyDataInit
 8000380:	d3f9      	bcc.n	8000376 <CopyDataInit>

/* Zero fill the bss segment. */
  ldr r2, =_sbss
 8000382:	4a0a      	ldr	r2, [pc, #40]	@ (80003ac <LoopForever+0x12>)
  ldr r4, =_ebss
 8000384:	4c0a      	ldr	r4, [pc, #40]	@ (80003b0 <LoopForever+0x16>)
  movs r3, #0
 8000386:	2300      	movs	r3, #0
  b LoopFillZerobss
 8000388:	e001      	b.n	800038e <LoopFillZerobss>

0800038a <FillZerobss>:

FillZerobss:
  str  r3, [r2]
 800038a:	6013      	str	r3, [r2, #0]
  adds r2, r2, #4
 800038c:	3204      	adds	r2, #4

0800038e <LoopFillZerobss>:

LoopFillZerobss:
  cmp r2, r4
 800038e:	42a2      	cmp	r2, r4
  bcc FillZerobss
 8000390:	d3fb      	bcc.n	800038a <FillZerobss>


/* Call static constructors */
  bl __libc_init_array
 8000392:	f000 f811 	bl	80003b8 <__libc_init_array>
/* Call the application's entry point.*/

  bl main
 8000396:	f7ff feeb 	bl	8000170 <main>

0800039a <LoopForever>:

LoopForever:
  b LoopForever
 800039a:	e7fe      	b.n	800039a <LoopForever>
  ldr   r0, =_estack
 800039c:	20005000 	.word	0x20005000
  ldr r0, =_sdata
 80003a0:	20000000 	.word	0x20000000
  ldr r1, =_edata
 80003a4:	20000000 	.word	0x20000000
  ldr r2, =_sidata
 80003a8:	08000420 	.word	0x08000420
  ldr r2, =_sbss
 80003ac:	20000000 	.word	0x20000000
  ldr r4, =_ebss
 80003b0:	20000024 	.word	0x20000024

080003b4 <ADC1_2_IRQHandler>:
 * @retval : None
*/
  .section .text.Default_Handler,"ax",%progbits
Default_Handler:
Infinite_Loop:
  b Infinite_Loop
 80003b4:	e7fe      	b.n	80003b4 <ADC1_2_IRQHandler>
	...

080003b8 <__libc_init_array>:
 80003b8:	b570      	push	{r4, r5, r6, lr}
 80003ba:	2600      	movs	r6, #0
 80003bc:	4d0c      	ldr	r5, [pc, #48]	@ (80003f0 <__libc_init_array+0x38>)
 80003be:	4b0d      	ldr	r3, [pc, #52]	@ (80003f4 <__libc_init_array+0x3c>)
 80003c0:	1b5b      	subs	r3, r3, r5
 80003c2:	109c      	asrs	r4, r3, #2
 80003c4:	42a6      	cmp	r6, r4
 80003c6:	d109      	bne.n	80003dc <__libc_init_array+0x24>
 80003c8:	2600      	movs	r6, #0
 80003ca:	f000 f819 	bl	8000400 <_init>
 80003ce:	4d0a      	ldr	r5, [pc, #40]	@ (80003f8 <__libc_init_array+0x40>)
 80003d0:	4b0a      	ldr	r3, [pc, #40]	@ (80003fc <__libc_init_array+0x44>)
 80003d2:	1b5b      	subs	r3, r3, r5
 80003d4:	109c      	asrs	r4, r3, #2
 80003d6:	42a6      	cmp	r6, r4
 80003d8:	d105      	bne.n	80003e6 <__libc_init_array+0x2e>
 80003da:	bd70      	pop	{r4, r5, r6, pc}
 80003dc:	f855 3b04 	ldr.w	r3, [r5], #4
 80003e0:	4798      	blx	r3
 80003e2:	3601      	adds	r6, #1
 80003e4:	e7ee      	b.n	80003c4 <__libc_init_array+0xc>
 80003e6:	f855 3b04 	ldr.w	r3, [r5], #4
 80003ea:	4798      	blx	r3
 80003ec:	3601      	adds	r6, #1
 80003ee:	e7f2      	b.n	80003d6 <__libc_init_array+0x1e>
 80003f0:	08000418 	.word	0x08000418
 80003f4:	08000418 	.word	0x08000418
 80003f8:	08000418 	.word	0x08000418
 80003fc:	0800041c 	.word	0x0800041c

08000400 <_init>:
 8000400:	b5f8      	push	{r3, r4, r5, r6, r7, lr}
 8000402:	bf00      	nop
 8000404:	bcf8      	pop	{r3, r4, r5, r6, r7}
 8000406:	bc08      	pop	{r3}
 8000408:	469e      	mov	lr, r3
 800040a:	4770      	bx	lr

0800040c <_fini>:
 800040c:	b5f8      	push	{r3, r4, r5, r6, r7, lr}
 800040e:	bf00      	nop
 8000410:	bcf8      	pop	{r3, r4, r5, r6, r7}
 8000412:	bc08      	pop	{r3}
 8000414:	469e      	mov	lr, r3
 8000416:	4770      	bx	lr
